 jsdt

 Timestamp is 60b79cdf (Wed Jun 02 15:59:43 2021)

 Preferred load address is 0000000180000000

 Start         Length     Name                   Class
 0001:00000000 000014a2H .text                   CODE
 0001:000014b0 00000092H .text$x                 CODE
 0002:00000000 00000130H .idata$5                DATA
 0002:00000130 00000008H .CRT$XCA                DATA
 0002:00000138 00000008H .CRT$XCZ                DATA
 0002:00000140 00000008H .CRT$XIA                DATA
 0002:00000148 00000008H .CRT$XIAA               DATA
 0002:00000150 00000008H .CRT$XIZ                DATA
 0002:00000160 00000320H .rdata                  DATA
 0002:00000480 00000071H .rdata$debug            DATA
 0002:000004f8 00000008H .rtc$IAA                DATA
 0002:00000500 00000008H .rtc$IZZ                DATA
 0002:00000508 00000008H .rtc$TAA                DATA
 0002:00000510 00000008H .rtc$TZZ                DATA
 0002:00000518 00000174H .xdata                  DATA
 0002:0000068c 00000028H .idata$2                DATA
 0002:000006b4 00000014H .idata$3                DATA
 0002:000006c8 00000130H .idata$4                DATA
 0002:000007f8 000002acH .idata$6                DATA
 0002:00000ab0 00000127H .edata                  DATA
 0003:00000000 00000018H .data                   DATA
 0003:00000020 000005b8H .bss                    DATA
 0004:00000000 00000150H .pdata                  DATA
 0005:00000000 00000058H .rsrc$01                DATA
 0005:00000060 00000350H .rsrc$02                DATA

  Address         Publics by Value              Rva+Base               Lib:Object

 0000:00000000       ___safe_se_handler_count   0000000000000000     <absolute>
 0000:00000000       ___safe_se_handler_table   0000000000000000     <absolute>
 0000:00000000       __ImageBase                0000000180000000     <linker-defined>
 0001:00000000       Java_sun_tracing_dtrace_JVM_isSupported0 0000000180001000 f   JVM.obj
 0001:00000708       Java_sun_tracing_dtrace_JVM_activate0 0000000180001708 f   JVM.obj
 0001:00000830       Java_sun_tracing_dtrace_JVM_dispose0 0000000180001830 f   JVM.obj
 0001:00000850       Java_sun_tracing_dtrace_JVM_isEnabled0 0000000180001850 f   JVM.obj
 0001:00000890       Java_sun_tracing_dtrace_JVM_defineClass0 0000000180001890 f   JVM.obj
 0001:00000a20       lookupJvmSymbols           0000000180001a20 f   jvm_symbols_md.obj
 0001:00000b3c       __GSHandlerCheckCommon     0000000180001b3c f   MSVCRT:gshandler.obj
 0001:00000ba0       __GSHandlerCheck           0000000180001ba0 f   MSVCRT:gshandler.obj
 0001:00000bd0       __security_check_cookie    0000000180001bd0 f   MSVCRT:amdsecgs.obj
 0001:00000c50       _CRT_INIT                  0000000180001c50 f   MSVCRT:crtdll.obj
 0001:00000fe8       _DllMainCRTStartup         0000000180001fe8 f   MSVCRT:crtdll.obj
 0001:00001028       __report_gsfailure         0000000180002028 f   MSVCRT:gs_report.obj
 0001:00001174       __clean_type_info_names    0000000180002174 f   MSVCRT:tncleanup.obj
 0001:00001180       _onexit                    0000000180002180 f   MSVCRT:atonexit.obj
 0001:00001230       atexit                     0000000180002230 f   MSVCRT:atonexit.obj
 0001:00001248       _RTC_Initialize            0000000180002248 f   MSVCRT:_initsect_.obj
 0001:00001280       _RTC_Terminate             0000000180002280 f   MSVCRT:_initsect_.obj
 0001:000012c0       _ValidateImageBase         00000001800022c0 f   MSVCRT:pesect.obj
 0001:000012f0       _FindPESection             00000001800022f0 f   MSVCRT:pesect.obj
 0001:00001340       _IsNonwritableInCurrentImage 0000000180002340 f   MSVCRT:pesect.obj
 0001:00001382       _initterm                  0000000180002382 f   MSVCRT:MSVCR100.dll
 0001:00001388       _initterm_e                0000000180002388 f   MSVCRT:MSVCR100.dll
 0001:0000138e       _amsg_exit                 000000018000238e f   MSVCRT:MSVCR100.dll
 0001:00001394       __C_specific_handler       0000000180002394 f   MSVCRT:MSVCR100.dll
 0001:0000139a       __CppXcptFilter            000000018000239a f   MSVCRT:MSVCR100.dll
 0001:000013a0       DllMain                    00000001800023a0 f   MSVCRT:dllmain.obj
 0001:000013c4       __security_init_cookie     00000001800023c4 f   MSVCRT:gs_support.obj
 0001:00001478       __crt_debugger_hook        0000000180002478 f   MSVCRT:MSVCR100.dll
 0001:0000147e       __clean_type_info_names_internal 000000018000247e f   MSVCRT:MSVCR100.dll
 0001:00001484       _unlock                    0000000180002484 f   MSVCRT:MSVCR100.dll
 0001:0000148a       __dllonexit                000000018000248a f   MSVCRT:MSVCR100.dll
 0001:00001490       _lock                      0000000180002490 f   MSVCRT:MSVCR100.dll
 0001:00001496       RtlVirtualUnwind           0000000180002496 f   kernel32:KERNEL32.dll
 0001:0000149c       RtlLookupFunctionEntry     000000018000249c f   kernel32:KERNEL32.dll
 0002:00000000       __imp_GetModuleHandleA     0000000180003000     kernel32:KERNEL32.dll
 0002:00000008       __imp_GetSystemTimeAsFileTime 0000000180003008     kernel32:KERNEL32.dll
 0002:00000010       __imp_GetCurrentProcessId  0000000180003010     kernel32:KERNEL32.dll
 0002:00000018       __imp_GetCurrentThreadId   0000000180003018     kernel32:KERNEL32.dll
 0002:00000020       __imp_GetTickCount         0000000180003020     kernel32:KERNEL32.dll
 0002:00000028       __imp_QueryPerformanceCounter 0000000180003028     kernel32:KERNEL32.dll
 0002:00000030       __imp_DisableThreadLibraryCalls 0000000180003030     kernel32:KERNEL32.dll
 0002:00000038       __imp_RtlCaptureContext    0000000180003038     kernel32:KERNEL32.dll
 0002:00000040       __imp_RtlLookupFunctionEntry 0000000180003040     kernel32:KERNEL32.dll
 0002:00000048       __imp_RtlVirtualUnwind     0000000180003048     kernel32:KERNEL32.dll
 0002:00000050       __imp_IsDebuggerPresent    0000000180003050     kernel32:KERNEL32.dll
 0002:00000058       __imp_SetUnhandledExceptionFilter 0000000180003058     kernel32:KERNEL32.dll
 0002:00000060       __imp_UnhandledExceptionFilter 0000000180003060     kernel32:KERNEL32.dll
 0002:00000068       __imp_GetCurrentProcess    0000000180003068     kernel32:KERNEL32.dll
 0002:00000070       __imp_TerminateProcess     0000000180003070     kernel32:KERNEL32.dll
 0002:00000078       __imp_Sleep                0000000180003078     kernel32:KERNEL32.dll
 0002:00000080       __imp_DecodePointer        0000000180003080     kernel32:KERNEL32.dll
 0002:00000088       __imp_FreeLibrary          0000000180003088     kernel32:KERNEL32.dll
 0002:00000090       __imp_GetProcAddress       0000000180003090     kernel32:KERNEL32.dll
 0002:00000098       __imp_EncodePointer        0000000180003098     kernel32:KERNEL32.dll
 0002:000000a0       \177KERNEL32_NULL_THUNK_DATA 00000001800030a0     kernel32:KERNEL32.dll
 0002:000000a8       __imp__onexit              00000001800030a8     MSVCRT:MSVCR100.dll
 0002:000000b0       __imp__lock                00000001800030b0     MSVCRT:MSVCR100.dll
 0002:000000b8       __imp___dllonexit          00000001800030b8     MSVCRT:MSVCR100.dll
 0002:000000c0       __imp__unlock              00000001800030c0     MSVCRT:MSVCR100.dll
 0002:000000c8       __imp___clean_type_info_names_internal 00000001800030c8     MSVCRT:MSVCR100.dll
 0002:000000d0       __imp___crt_debugger_hook  00000001800030d0     MSVCRT:MSVCR100.dll
 0002:000000d8       __imp___CppXcptFilter      00000001800030d8     MSVCRT:MSVCR100.dll
 0002:000000e0       __imp___C_specific_handler 00000001800030e0     MSVCRT:MSVCR100.dll
 0002:000000e8       __imp__amsg_exit           00000001800030e8     MSVCRT:MSVCR100.dll
 0002:000000f0       __imp__encoded_null        00000001800030f0     MSVCRT:MSVCR100.dll
 0002:000000f8       __imp__initterm_e          00000001800030f8     MSVCRT:MSVCR100.dll
 0002:00000100       __imp__initterm            0000000180003100     MSVCRT:MSVCR100.dll
 0002:00000108       __imp__malloc_crt          0000000180003108     MSVCRT:MSVCR100.dll
 0002:00000110       __imp_malloc               0000000180003110     MSVCRT:MSVCR100.dll
 0002:00000118       __imp_free                 0000000180003118     MSVCRT:MSVCR100.dll
 0002:00000120       __imp_calloc               0000000180003120     MSVCRT:MSVCR100.dll
 0002:00000128       \177MSVCR100_NULL_THUNK_DATA 0000000180003128     MSVCRT:MSVCR100.dll
 0002:00000130       __xc_a                     0000000180003130     MSVCRT:cinitexe.obj
 0002:00000138       __xc_z                     0000000180003138     MSVCRT:cinitexe.obj
 0002:00000140       __xi_a                     0000000180003140     MSVCRT:cinitexe.obj
 0002:00000150       __xi_z                     0000000180003150     MSVCRT:cinitexe.obj
 0002:00000180       ??_C@_09NMJPOCAM@getMethod?$AA@ 0000000180003180     JVM.obj
 0002:00000190       ??_C@_0BN@JCANOPKL@?$CI?$CJLjava?1lang?1reflect?1Method?$DL?$AA@ 0000000180003190     JVM.obj
 0002:000001b0       ??_C@_0N@GLEHPCOE@getProbeName?$AA@ 00000001800031b0     JVM.obj
 0002:000001c0       ??_C@_0BA@NNECHGAB@getFunctionName?$AA@ 00000001800031c0     JVM.obj
 0002:000001d0       ??_C@_0BF@FOHFOJOB@?$CI?$CJLjava?1lang?1String?$DL?$AA@ 00000001800031d0     JVM.obj
 0002:000001e8       ??_C@_0BG@CKEMCFKC@getDependencyClassFor?$AA@ 00000001800031e8     JVM.obj
 0002:00000200       ??_C@_0DM@FFLNJGNJ@?$CILjava?1lang?1Class?$DL?$CJLcom?1sun?1trac@ 0000000180003200     JVM.obj
 0002:00000240       ??_C@_0BE@LHFLEDNE@getDataStabilityFor?$AA@ 0000000180003240     JVM.obj
 0002:00000258       ??_C@_0M@FGDAMOPH@getEncoding?$AA@ 0000000180003258     JVM.obj
 0002:00000264       ??_C@_03KNBKCOBB@?$CI?$CJI?$AA@ 0000000180003264     JVM.obj
 0002:00000268       ??_C@_0BE@KOMLJLLG@getNameStabilityFor?$AA@ 0000000180003268     JVM.obj
 0002:00000280       ??_C@_0DL@MIIGBODP@?$CILjava?1lang?1Class?$DL?$CJLcom?1sun?1trac@ 0000000180003280     JVM.obj
 0002:000002c0       ??_C@_0CG@KEKNFPJI@com?1sun?1tracing?1dtrace?1ArgsAttri@ 00000001800032c0     JVM.obj
 0002:000002e8       ??_C@_0CG@DDIMKLII@com?1sun?1tracing?1dtrace?1NameAttri@ 00000001800032e8     JVM.obj
 0002:00000310       ??_C@_0CK@NKIDJGKP@com?1sun?1tracing?1dtrace?1FunctionA@ 0000000180003310     JVM.obj
 0002:00000340       ??_C@_0CI@FLGMPHG@com?1sun?1tracing?1dtrace?1ModuleAtt@ 0000000180003340     JVM.obj
 0002:00000368       ??_C@_0CK@JCDANPFK@com?1sun?1tracing?1dtrace?1ProviderA@ 0000000180003368     JVM.obj
 0002:00000398       ??_C@_0BA@KLNPFOLM@getProviderName?$AA@ 0000000180003398     JVM.obj
 0002:000003a8       ??_C@_09LENMGKJG@getProbes?$AA@ 00000001800033a8     JVM.obj
 0002:000003b8       ??_C@_0CE@PHHJGPCP@?$CI?$CJ?$FLLsun?1tracing?1dtrace?1DTracePro@ 00000001800033b8     JVM.obj
 0002:000003e0       ??_C@_0BJ@IMKPAIJP@JVM_DTraceIsProbeEnabled?$AA@ 00000001800033e0     jvm_symbols_md.obj
 0002:00000400       ??_C@_0BC@COCGKBOJ@JVM_DTraceDispose?$AA@ 0000000180003400     jvm_symbols_md.obj
 0002:00000418       ??_C@_0BD@HBFPHEGF@JVM_DTraceActivate?$AA@ 0000000180003418     jvm_symbols_md.obj
 0002:00000430       ??_C@_0BG@KGNDFFEA@JVM_DTraceIsSupported?$AA@ 0000000180003430     jvm_symbols_md.obj
 0002:00000448       ??_C@_0BF@GFNDPPLH@JVM_DTraceGetVersion?$AA@ 0000000180003448     jvm_symbols_md.obj
 0002:00000460       ??_C@_07KCBEICKO@jvm?4dll?$AA@ 0000000180003460     jvm_symbols_md.obj
 0002:00000468       _pRawDllMain               0000000180003468     MSVCRT:crtdll.obj
 0002:00000468       _pDefaultRawDllMain        0000000180003468     MSVCRT:crtdll.obj
 0002:000004f8       __rtc_iaa                  00000001800034f8     MSVCRT:_initsect_.obj
 0002:00000500       __rtc_izz                  0000000180003500     MSVCRT:_initsect_.obj
 0002:00000508       __rtc_taa                  0000000180003508     MSVCRT:_initsect_.obj
 0002:00000510       __rtc_tzz                  0000000180003510     MSVCRT:_initsect_.obj
 0002:0000068c       __IMPORT_DESCRIPTOR_MSVCR100 000000018000368c     MSVCRT:MSVCR100.dll
 0002:000006a0       __IMPORT_DESCRIPTOR_KERNEL32 00000001800036a0     kernel32:KERNEL32.dll
 0002:000006b4       __NULL_IMPORT_DESCRIPTOR   00000001800036b4     MSVCRT:MSVCR100.dll
 0003:00000000       __security_cookie          0000000180004000     MSVCRT:gs_cookie.obj
 0003:00000008       __security_cookie_complement 0000000180004008     MSVCRT:gs_cookie.obj
 0003:00000010       __native_dllmain_reason    0000000180004010     MSVCRT:natstart.obj
 0003:00000014       __native_vcclrit_reason    0000000180004014     MSVCRT:natstart.obj
 0003:000005a0       ?__type_info_root_node@@3U__type_info_node@@A 00000001800045a0     MSVCRT:tncleanup.obj
 0003:000005b0       __native_startup_state     00000001800045b0     <common>
 0003:000005b8       __native_startup_lock      00000001800045b8     <common>
 0003:000005c0       __onexitend                00000001800045c0     <common>
 0003:000005c8       __onexitbegin              00000001800045c8     <common>
 0003:000005d0       __dyn_tls_init_callback    00000001800045d0     <common>

 entry point at        0001:00000fe8

 Static symbols

 0001:00000054       readProbeData              0000000180001054 f   JVM.obj
 0001:000001d8       readFieldInterfaceAttributes 00000001800011d8 f   JVM.obj
 0001:000004ec       readProviderData           00000001800014ec f   JVM.obj
 0001:00000bf0       pre_c_init                 0000000180001bf0 f   MSVCRT:crtdll.obj
 0001:00000eac       __DllMainCRTStartup        0000000180001eac f   MSVCRT:crtdll.obj
 0001:000014b0       __DllMainCRTStartup$filt$0 00000001800024b0 f   MSVCRT:crtdll.obj
 0001:000014e0       __DllMainCRTStartup$fin$1  00000001800024e0 f   MSVCRT:crtdll.obj
 0001:000014fa       _onexit$fin$0              00000001800024fa f   MSVCRT:atonexit.obj
 0001:00001520       _IsNonwritableInCurrentImage$filt$0 0000000180002520 f   MSVCRT:pesect.obj
